; ModuleID = '29/396.c'
source_filename = "29/396.c"
target datalayout = "e-m:e-p270:32:32-p271:32:32-p272:64:64-i64:64-f80:128-n8:16:32:64-S128"
target triple = "x86_64-pc-linux-gnu"

@.str = private unnamed_addr constant [3 x i8] c"%d\00", align 1
@.str.1 = private unnamed_addr constant [6 x i8] c"%.3f\0A\00", align 1

; Function Attrs: noinline nounwind uwtable
define dso_local i32 @main() #0 {
  %1 = alloca i32, align 4
  %2 = alloca i32, align 4
  %3 = alloca [100 x float], align 16
  %4 = alloca [100 x float], align 16
  %5 = alloca [100 x float], align 16
  %6 = alloca i32, align 4
  %7 = alloca i32, align 4
  %8 = alloca [100 x i32], align 16
  %9 = alloca [100 x i32], align 16
  %10 = alloca [100 x float], align 16
  %11 = alloca i32, align 4
  store i32 0, i32* %1, align 4
  %12 = getelementptr inbounds [100 x float], [100 x float]* %3, i64 0, i64 1
  store float 1.000000e+00, float* %12, align 4
  %13 = getelementptr inbounds [100 x float], [100 x float]* %4, i64 0, i64 1
  store float 2.000000e+00, float* %13, align 4
  %14 = getelementptr inbounds [100 x float], [100 x float]* %4, i64 0, i64 1
  %15 = load float, float* %14, align 4
  %16 = getelementptr inbounds [100 x float], [100 x float]* %3, i64 0, i64 1
  %17 = load float, float* %16, align 4
  %18 = fdiv float %15, %17
  %19 = getelementptr inbounds [100 x float], [100 x float]* %5, i64 0, i64 1
  store float %18, float* %19, align 4
  store i32 2, i32* %2, align 4
  br label %20

20:                                               ; preds = %57, %0
  %21 = load i32, i32* %2, align 4
  %22 = icmp slt i32 %21, 100
  br i1 %22, label %23, label %60

23:                                               ; preds = %20
  %24 = load i32, i32* %2, align 4
  %25 = sub nsw i32 %24, 1
  %26 = sext i32 %25 to i64
  %27 = getelementptr inbounds [100 x float], [100 x float]* %4, i64 0, i64 %26
  %28 = load float, float* %27, align 4
  %29 = load i32, i32* %2, align 4
  %30 = sext i32 %29 to i64
  %31 = getelementptr inbounds [100 x float], [100 x float]* %3, i64 0, i64 %30
  store float %28, float* %31, align 4
  %32 = load i32, i32* %2, align 4
  %33 = sext i32 %32 to i64
  %34 = getelementptr inbounds [100 x float], [100 x float]* %3, i64 0, i64 %33
  %35 = load float, float* %34, align 4
  %36 = load i32, i32* %2, align 4
  %37 = sub nsw i32 %36, 1
  %38 = sext i32 %37 to i64
  %39 = getelementptr inbounds [100 x float], [100 x float]* %3, i64 0, i64 %38
  %40 = load float, float* %39, align 4
  %41 = fadd float %35, %40
  %42 = load i32, i32* %2, align 4
  %43 = sext i32 %42 to i64
  %44 = getelementptr inbounds [100 x float], [100 x float]* %4, i64 0, i64 %43
  store float %41, float* %44, align 4
  %45 = load i32, i32* %2, align 4
  %46 = sext i32 %45 to i64
  %47 = getelementptr inbounds [100 x float], [100 x float]* %4, i64 0, i64 %46
  %48 = load float, float* %47, align 4
  %49 = load i32, i32* %2, align 4
  %50 = sext i32 %49 to i64
  %51 = getelementptr inbounds [100 x float], [100 x float]* %3, i64 0, i64 %50
  %52 = load float, float* %51, align 4
  %53 = fdiv float %48, %52
  %54 = load i32, i32* %2, align 4
  %55 = sext i32 %54 to i64
  %56 = getelementptr inbounds [100 x float], [100 x float]* %5, i64 0, i64 %55
  store float %53, float* %56, align 4
  br label %57

57:                                               ; preds = %23
  %58 = load i32, i32* %2, align 4
  %59 = add nsw i32 %58, 1
  store i32 %59, i32* %2, align 4
  br label %20

60:                                               ; preds = %20
  %61 = call i32 (i8*, ...) @__isoc99_scanf(i8* getelementptr inbounds ([3 x i8], [3 x i8]* @.str, i64 0, i64 0), i32* %6)
  store i32 0, i32* %7, align 4
  br label %62

62:                                               ; preds = %71, %60
  %63 = load i32, i32* %7, align 4
  %64 = load i32, i32* %6, align 4
  %65 = icmp slt i32 %63, %64
  br i1 %65, label %66, label %74

66:                                               ; preds = %62
  %67 = load i32, i32* %7, align 4
  %68 = sext i32 %67 to i64
  %69 = getelementptr inbounds [100 x i32], [100 x i32]* %9, i64 0, i64 %68
  %70 = call i32 (i8*, ...) @__isoc99_scanf(i8* getelementptr inbounds ([3 x i8], [3 x i8]* @.str, i64 0, i64 0), i32* %69)
  br label %71

71:                                               ; preds = %66
  %72 = load i32, i32* %7, align 4
  %73 = add nsw i32 %72, 1
  store i32 %73, i32* %7, align 4
  br label %62

74:                                               ; preds = %62
  store i32 0, i32* %7, align 4
  br label %75

75:                                               ; preds = %110, %74
  %76 = load i32, i32* %7, align 4
  %77 = load i32, i32* %6, align 4
  %78 = icmp slt i32 %76, %77
  br i1 %78, label %79, label %113

79:                                               ; preds = %75
  %80 = load i32, i32* %7, align 4
  %81 = sext i32 %80 to i64
  %82 = getelementptr inbounds [100 x float], [100 x float]* %10, i64 0, i64 %81
  store float 0.000000e+00, float* %82, align 4
  store i32 1, i32* %11, align 4
  br label %83

83:                                               ; preds = %100, %79
  %84 = load i32, i32* %11, align 4
  %85 = load i32, i32* %7, align 4
  %86 = sext i32 %85 to i64
  %87 = getelementptr inbounds [100 x i32], [100 x i32]* %9, i64 0, i64 %86
  %88 = load i32, i32* %87, align 4
  %89 = icmp sle i32 %84, %88
  br i1 %89, label %90, label %103

90:                                               ; preds = %83
  %91 = load i32, i32* %11, align 4
  %92 = sext i32 %91 to i64
  %93 = getelementptr inbounds [100 x float], [100 x float]* %5, i64 0, i64 %92
  %94 = load float, float* %93, align 4
  %95 = load i32, i32* %7, align 4
  %96 = sext i32 %95 to i64
  %97 = getelementptr inbounds [100 x float], [100 x float]* %10, i64 0, i64 %96
  %98 = load float, float* %97, align 4
  %99 = fadd float %98, %94
  store float %99, float* %97, align 4
  br label %100

100:                                              ; preds = %90
  %101 = load i32, i32* %11, align 4
  %102 = add nsw i32 %101, 1
  store i32 %102, i32* %11, align 4
  br label %83

103:                                              ; preds = %83
  %104 = load i32, i32* %7, align 4
  %105 = sext i32 %104 to i64
  %106 = getelementptr inbounds [100 x float], [100 x float]* %10, i64 0, i64 %105
  %107 = load float, float* %106, align 4
  %108 = fpext float %107 to double
  %109 = call i32 (i8*, ...) @printf(i8* getelementptr inbounds ([6 x i8], [6 x i8]* @.str.1, i64 0, i64 0), double %108)
  br label %110

110:                                              ; preds = %103
  %111 = load i32, i32* %7, align 4
  %112 = add nsw i32 %111, 1
  store i32 %112, i32* %7, align 4
  br label %75

113:                                              ; preds = %75
  ret i32 0
}

declare dso_local i32 @__isoc99_scanf(i8*, ...) #1

declare dso_local i32 @printf(i8*, ...) #1


!llvm.module.flags = !{!0}
!llvm.ident = !{!1}

!0 = !{i32 1, !"wchar_size", i32 4}
!1 = !{!"clang version 10.0.0-4ubuntu1 "}
